; ModuleID = '42/17.c'
source_filename = "42/17.c"
target datalayout = "e-m:e-p270:32:32-p271:32:32-p272:64:64-i64:64-f80:128-n8:16:32:64-S128"
target triple = "x86_64-pc-linux-gnu"

@.str = private unnamed_addr constant [3 x i8] c"%d\00", align 1
@.str.1 = private unnamed_addr constant [4 x i8] c"%d \00", align 1
@.str.2 = private unnamed_addr constant [4 x i8] c"%d\0A\00", align 1

; Function Attrs: noinline nounwind uwtable
define dso_local void @main() #0 {
  %1 = alloca i32, align 4
  %2 = alloca i32, align 4
  %3 = alloca i32, align 4
  %4 = alloca i32, align 4
  %5 = alloca i32, align 4
  %6 = alloca i32, align 4
  %7 = alloca [100000 x i32], align 16
  store i32 0, i32* %6, align 4
  %8 = call i32 (i8*, ...) @__isoc99_scanf(i8* getelementptr inbounds ([3 x i8], [3 x i8]* @.str, i64 0, i64 0), i32* %1)
  store i32 0, i32* %2, align 4
  br label %9

9:                                                ; preds = %18, %0
  %10 = load i32, i32* %2, align 4
  %11 = load i32, i32* %1, align 4
  %12 = icmp slt i32 %10, %11
  br i1 %12, label %13, label %21

13:                                               ; preds = %9
  %14 = load i32, i32* %2, align 4
  %15 = sext i32 %14 to i64
  %16 = getelementptr inbounds [100000 x i32], [100000 x i32]* %7, i64 0, i64 %15
  %17 = call i32 (i8*, ...) @__isoc99_scanf(i8* getelementptr inbounds ([3 x i8], [3 x i8]* @.str, i64 0, i64 0), i32* %16)
  br label %18

18:                                               ; preds = %13
  %19 = load i32, i32* %2, align 4
  %20 = add nsw i32 %19, 1
  store i32 %20, i32* %2, align 4
  br label %9

21:                                               ; preds = %9
  %22 = call i32 (i8*, ...) @__isoc99_scanf(i8* getelementptr inbounds ([3 x i8], [3 x i8]* @.str, i64 0, i64 0), i32* %3)
  %23 = load i32, i32* %1, align 4
  %24 = sub nsw i32 %23, 1
  %25 = sext i32 %24 to i64
  %26 = getelementptr inbounds [100000 x i32], [100000 x i32]* %7, i64 0, i64 %25
  %27 = load i32, i32* %26, align 4
  store i32 %27, i32* %5, align 4
  %28 = load i32, i32* %1, align 4
  %29 = sub nsw i32 %28, 1
  %30 = sext i32 %29 to i64
  %31 = getelementptr inbounds [100000 x i32], [100000 x i32]* %7, i64 0, i64 %30
  %32 = load i32, i32* %31, align 4
  %33 = load i32, i32* %3, align 4
  %34 = icmp eq i32 %32, %33
  %35 = zext i1 %34 to i32
  %36 = load i32, i32* %1, align 4
  %37 = sub nsw i32 %36, 1
  %38 = sext i32 %37 to i64
  %39 = getelementptr inbounds [100000 x i32], [100000 x i32]* %7, i64 0, i64 %38
  %40 = load i32, i32* %39, align 4
  %41 = add nsw i32 %40, %35
  store i32 %41, i32* %39, align 4
  store i32 0, i32* %2, align 4
  br label %42

42:                                               ; preds = %82, %21
  %43 = load i32, i32* %2, align 4
  %44 = load i32, i32* %1, align 4
  %45 = load i32, i32* %6, align 4
  %46 = sub nsw i32 %44, %45
  %47 = icmp slt i32 %43, %46
  br i1 %47, label %48, label %85

48:                                               ; preds = %42
  %49 = load i32, i32* %2, align 4
  store i32 %49, i32* %4, align 4
  %50 = load i32, i32* %2, align 4
  %51 = sext i32 %50 to i64
  %52 = getelementptr inbounds [100000 x i32], [100000 x i32]* %7, i64 0, i64 %51
  %53 = load i32, i32* %52, align 4
  %54 = load i32, i32* %3, align 4
  %55 = icmp eq i32 %53, %54
  br i1 %55, label %56, label %81

56:                                               ; preds = %48
  br label %57

57:                                               ; preds = %73, %56
  %58 = load i32, i32* %2, align 4
  %59 = load i32, i32* %1, align 4
  %60 = load i32, i32* %6, align 4
  %61 = sub nsw i32 %59, %60
  %62 = sub nsw i32 %61, 1
  %63 = icmp slt i32 %58, %62
  br i1 %63, label %64, label %76

64:                                               ; preds = %57
  %65 = load i32, i32* %2, align 4
  %66 = add nsw i32 %65, 1
  %67 = sext i32 %66 to i64
  %68 = getelementptr inbounds [100000 x i32], [100000 x i32]* %7, i64 0, i64 %67
  %69 = load i32, i32* %68, align 4
  %70 = load i32, i32* %2, align 4
  %71 = sext i32 %70 to i64
  %72 = getelementptr inbounds [100000 x i32], [100000 x i32]* %7, i64 0, i64 %71
  store i32 %69, i32* %72, align 4
  br label %73

73:                                               ; preds = %64
  %74 = load i32, i32* %2, align 4
  %75 = add nsw i32 %74, 1
  store i32 %75, i32* %2, align 4
  br label %57

76:                                               ; preds = %57
  %77 = load i32, i32* %6, align 4
  %78 = add nsw i32 %77, 1
  store i32 %78, i32* %6, align 4
  %79 = load i32, i32* %4, align 4
  %80 = sub nsw i32 %79, 1
  store i32 %80, i32* %2, align 4
  br label %81

81:                                               ; preds = %76, %48
  br label %82

82:                                               ; preds = %81
  %83 = load i32, i32* %2, align 4
  %84 = add nsw i32 %83, 1
  store i32 %84, i32* %2, align 4
  br label %42

85:                                               ; preds = %42
  %86 = load i32, i32* %5, align 4
  %87 = load i32, i32* %3, align 4
  %88 = icmp eq i32 %86, %87
  br i1 %88, label %89, label %115

89:                                               ; preds = %85
  store i32 0, i32* %2, align 4
  br label %90

90:                                               ; preds = %103, %89
  %91 = load i32, i32* %2, align 4
  %92 = load i32, i32* %1, align 4
  %93 = load i32, i32* %6, align 4
  %94 = sub nsw i32 %92, %93
  %95 = sub nsw i32 %94, 2
  %96 = icmp slt i32 %91, %95
  br i1 %96, label %97, label %106

97:                                               ; preds = %90
  %98 = load i32, i32* %2, align 4
  %99 = sext i32 %98 to i64
  %100 = getelementptr inbounds [100000 x i32], [100000 x i32]* %7, i64 0, i64 %99
  %101 = load i32, i32* %100, align 4
  %102 = call i32 (i8*, ...) @printf(i8* getelementptr inbounds ([4 x i8], [4 x i8]* @.str.1, i64 0, i64 0), i32 %101)
  br label %103

103:                                              ; preds = %97
  %104 = load i32, i32* %2, align 4
  %105 = add nsw i32 %104, 1
  store i32 %105, i32* %2, align 4
  br label %90

106:                                              ; preds = %90
  %107 = load i32, i32* %1, align 4
  %108 = load i32, i32* %6, align 4
  %109 = sub nsw i32 %107, %108
  %110 = sub nsw i32 %109, 2
  %111 = sext i32 %110 to i64
  %112 = getelementptr inbounds [100000 x i32], [100000 x i32]* %7, i64 0, i64 %111
  %113 = load i32, i32* %112, align 4
  %114 = call i32 (i8*, ...) @printf(i8* getelementptr inbounds ([4 x i8], [4 x i8]* @.str.2, i64 0, i64 0), i32 %113)
  br label %141

115:                                              ; preds = %85
  store i32 0, i32* %2, align 4
  br label %116

116:                                              ; preds = %129, %115
  %117 = load i32, i32* %2, align 4
  %118 = load i32, i32* %1, align 4
  %119 = load i32, i32* %6, align 4
  %120 = sub nsw i32 %118, %119
  %121 = sub nsw i32 %120, 1
  %122 = icmp slt i32 %117, %121
  br i1 %122, label %123, label %132

123:                                              ; preds = %116
  %124 = load i32, i32* %2, align 4
  %125 = sext i32 %124 to i64
  %126 = getelementptr inbounds [100000 x i32], [100000 x i32]* %7, i64 0, i64 %125
  %127 = load i32, i32* %126, align 4
  %128 = call i32 (i8*, ...) @printf(i8* getelementptr inbounds ([4 x i8], [4 x i8]* @.str.1, i64 0, i64 0), i32 %127)
  br label %129

129:                                              ; preds = %123
  %130 = load i32, i32* %2, align 4
  %131 = add nsw i32 %130, 1
  store i32 %131, i32* %2, align 4
  br label %116

132:                                              ; preds = %116
  %133 = load i32, i32* %1, align 4
  %134 = load i32, i32* %6, align 4
  %135 = sub nsw i32 %133, %134
  %136 = sub nsw i32 %135, 1
  %137 = sext i32 %136 to i64
  %138 = getelementptr inbounds [100000 x i32], [100000 x i32]* %7, i64 0, i64 %137
  %139 = load i32, i32* %138, align 4
  %140 = call i32 (i8*, ...) @printf(i8* getelementptr inbounds ([4 x i8], [4 x i8]* @.str.2, i64 0, i64 0), i32 %139)
  br label %141

141:                                              ; preds = %132, %106
  ret void
}

declare dso_local i32 @__isoc99_scanf(i8*, ...) #1

declare dso_local i32 @printf(i8*, ...) #1


!llvm.module.flags = !{!0}
!llvm.ident = !{!1}

!0 = !{i32 1, !"wchar_size", i32 4}
!1 = !{!"clang version 10.0.0-4ubuntu1 "}
